; Function Attrs: mustprogress uwtable
define dso_local noundef i32 @_Z10lua_objlenP9lua_Statei(ptr noundef readonly captures(none) %0, i32 noundef %1) local_unnamed_addr #3 {
  %3 = icmp sgt i32 %1, 0
  br i1 %3, label %4, label %12

4:                                                ; preds = %2
  %5 = getelementptr inbounds nuw i8, ptr %0, i64 16
  %6 = load ptr, ptr %5, align 8, !tbaa !4
  %7 = zext nneg i32 %1 to i64
  %8 = getelementptr %struct.lua_TValue, ptr %6, i64 %7
  %9 = getelementptr i8, ptr %8, i64 -16
  %10 = getelementptr inbounds nuw i8, ptr %0, i64 8
  %11 = load ptr, ptr %10, align 8, !tbaa !19
  %.not.i = icmp ult ptr %9, %11
  %.luaO_nilobject_.i = select i1 %.not.i, ptr %9, ptr @luaO_nilobject_
  br label %_ZL10index2addrP9lua_Statei.exit

12:                                               ; preds = %2
  %13 = icmp sgt i32 %1, -10000
  br i1 %13, label %14, label %19

14:                                               ; preds = %12
  %15 = getelementptr inbounds nuw i8, ptr %0, i64 8
  %16 = load ptr, ptr %15, align 8, !tbaa !19
  %17 = sext i32 %1 to i64
  %18 = getelementptr inbounds %struct.lua_TValue, ptr %16, i64 %17
  br label %_ZL10index2addrP9lua_Statei.exit

19:                                               ; preds = %12
  %20 = tail call fastcc noundef ptr @_ZL11pseudo2addrP9lua_Statei(ptr noundef %0, i32 noundef %1)
  br label %_ZL10index2addrP9lua_Statei.exit

_ZL10index2addrP9lua_Statei.exit:                 ; preds = %4, %14, %19
  %.1.i = phi ptr [ %.luaO_nilobject_.i, %4 ], [ %18, %14 ], [ %20, %19 ]
  %21 = getelementptr inbounds nuw i8, ptr %.1.i, i64 12
  %22 = load i32, ptr %21, align 4, !tbaa !47
  switch i32 %22, label %38 [
    i32 5, label %23
    i32 8, label %27
    i32 10, label %31
    i32 6, label %35
  ]

23:                                               ; preds = %_ZL10index2addrP9lua_Statei.exit
  %24 = load ptr, ptr %.1.i, align 8, !tbaa !21
  %25 = getelementptr inbounds nuw i8, ptr %24, i64 20
  %26 = load i32, ptr %25, align 4, !tbaa !61
  br label %38

27:                                               ; preds = %_ZL10index2addrP9lua_Statei.exit
  %28 = load ptr, ptr %.1.i, align 8, !tbaa !21
  %29 = getelementptr inbounds nuw i8, ptr %28, i64 4
  %30 = load i32, ptr %29, align 4, !tbaa !66
  br label %38

31:                                               ; preds = %_ZL10index2addrP9lua_Statei.exit
  %32 = load ptr, ptr %.1.i, align 8, !tbaa !21
  %33 = getelementptr inbounds nuw i8, ptr %32, i64 4
  %34 = load i32, ptr %33, align 4, !tbaa !68
  br label %38

35:                                               ; preds = %_ZL10index2addrP9lua_Statei.exit
  %36 = load ptr, ptr %.1.i, align 8, !tbaa !21
  %37 = tail call noundef i32 @_Z9luaH_getnP8LuaTable(ptr noundef %36)
  br label %38

38:                                               ; preds = %_ZL10index2addrP9lua_Statei.exit, %35, %31, %27, %23
  %.0 = phi i32 [ %37, %35 ], [ %34, %31 ], [ %30, %27 ], [ %26, %23 ], [ 0, %_ZL10index2addrP9lua_Statei.exit ]
  ret i32 %.0
}